target datalayout = "e-m:e-p270:32:32-p271:32:32-p272:64:64-i64:64-i128:128-f80:128-n8:16:32:64-S128"
target triple = "x86_64-pc-linux-gnu"

%"struct.btInverseDynamicsBullet3::RigidBody" = type { float, %"class.btInverseDynamicsBullet3::vec3", %"class.btInverseDynamicsBullet3::mat33", %"class.btInverseDynamicsBullet3::vec3", %"class.btInverseDynamicsBullet3::vec3", %"class.btInverseDynamicsBullet3::vec3", %"class.btInverseDynamicsBullet3::vec3", %"class.btInverseDynamicsBullet3::vec3", %"class.btInverseDynamicsBullet3::vec3", %"class.btInverseDynamicsBullet3::vec3", %"class.btInverseDynamicsBullet3::vec3", %"class.btInverseDynamicsBullet3::vec3", %"class.btInverseDynamicsBullet3::vec3", %"class.btInverseDynamicsBullet3::vec3", %"class.btInverseDynamicsBullet3::mat33", %"class.btInverseDynamicsBullet3::mat33", %"class.btInverseDynamicsBullet3::vec3", %"class.btInverseDynamicsBullet3::vec3", %"class.btInverseDynamicsBullet3::vec3", %"class.btInverseDynamicsBullet3::vec3", %"class.btInverseDynamicsBullet3::vec3", i32, %"class.btInverseDynamicsBullet3::vec3", %"class.btInverseDynamicsBullet3::mat33", %"class.btInverseDynamicsBullet3::vec3", %"class.btInverseDynamicsBullet3::vec3", %"class.btInverseDynamicsBullet3::vec3", i32, float, %"class.btInverseDynamicsBullet3::vec3", %"class.btInverseDynamicsBullet3::mat33", %"class.btInverseDynamicsBullet3::mat3x", %"class.btInverseDynamicsBullet3::mat3x", %"class.btInverseDynamicsBullet3::vec3", %"class.btInverseDynamicsBullet3::vec3" }
%"class.btInverseDynamicsBullet3::mat33" = type { %class.btMatrix3x3 }
%class.btMatrix3x3 = type { [3 x %class.btVector3] }
%class.btVector3 = type { [4 x float] }
%"class.btInverseDynamicsBullet3::mat3x" = type { %struct.btMatrixX }
%struct.btMatrixX = type { i32, i32, i32, i32, i32, [4 x i8], %class.btAlignedObjectArray, %class.btAlignedObjectArray.6 }
%class.btAlignedObjectArray = type <{ [4 x i8], i32, i32, [4 x i8], ptr, i8, [7 x i8] }>
%class.btAlignedObjectArray.6 = type <{ [4 x i8], i32, i32, [4 x i8], ptr, i8, [7 x i8] }>
%"class.btInverseDynamicsBullet3::vec3" = type { %class.btVector3 }
%class.b3AlignedObjectArray.0 = type <{ [4 x i8], i32, i32, [4 x i8], ptr, i8, [7 x i8] }>
%"class.btInverseDynamicsBullet3::MultiBodyTree::MultiBodyImpl" = type { i32, i32, %"class.btInverseDynamicsBullet3::vec3", %class.b3AlignedObjectArray, %class.b3AlignedObjectArray.0, %class.b3AlignedObjectArray.2, %class.b3AlignedObjectArray.0, %class.b3AlignedObjectArray.0, %class.b3AlignedObjectArray.0, %class.b3AlignedObjectArray.0, %class.b3AlignedObjectArray.0, %class.b3AlignedObjectArray.4, %"class.btInverseDynamicsBullet3::mat3x" }
%class.b3AlignedObjectArray = type <{ [4 x i8], i32, i32, [4 x i8], ptr, i8, [7 x i8] }>
%class.b3AlignedObjectArray.2 = type <{ [4 x i8], i32, i32, [4 x i8], ptr, i8, [7 x i8] }>
%class.b3AlignedObjectArray.4 = type <{ [4 x i8], i32, i32, [4 x i8], ptr, i8, [7 x i8] }>

; Function Attrs: inlinehint mustprogress nounwind uwtable
define linkonce_odr dso_local noundef nonnull align 8 dereferenceable(816) ptr @_ZN20b3AlignedObjectArrayIN24btInverseDynamicsBullet39RigidBodyEEixEi(ptr noundef nonnull align 8 dereferenceable(25) %0, i32 noundef %1) #6 comdat align 2 {
  %3 = alloca ptr, align 8
  %4 = alloca i32, align 4
  store ptr %0, ptr %3, align 8, !tbaa !44
  store i32 %1, ptr %4, align 4, !tbaa !9
  %5 = load ptr, ptr %3, align 8
  %6 = getelementptr inbounds nuw %class.b3AlignedObjectArray, ptr %5, i32 0, i32 4
  %7 = load ptr, ptr %6, align 8, !tbaa !54
  %8 = load i32, ptr %4, align 4, !tbaa !9
  %9 = sext i32 %8 to i64
  %10 = getelementptr inbounds %"struct.btInverseDynamicsBullet3::RigidBody", ptr %7, i64 %9
  ret ptr %10
}

; Function Attrs: mustprogress uwtable
define dso_local void @_ZN24btInverseDynamicsBullet313MultiBodyTree13MultiBodyImpl28clearAllUserForcesAndMomentsEv(ptr noundef nonnull align 8 dereferenceable(400) %0) #2 align 2 {
  %2 = alloca ptr, align 8
  %3 = alloca i32, align 4
  %4 = alloca ptr, align 8
  store ptr %0, ptr %2, align 8, !tbaa !12
  %5 = load ptr, ptr %2, align 8
  call void @llvm.lifetime.start.p0(i64 4, ptr %3) #15
  store i32 0, ptr %3, align 4, !tbaa !9
  br label %6

6:                                                ; preds = %20, %1
  %7 = load i32, ptr %3, align 4, !tbaa !9
  %8 = getelementptr inbounds nuw %"class.btInverseDynamicsBullet3::MultiBodyTree::MultiBodyImpl", ptr %5, i32 0, i32 0
  %9 = load i32, ptr %8, align 8, !tbaa !14
  %10 = icmp slt i32 %7, %9
  br i1 %10, label %12, label %11

11:                                               ; preds = %6
  call void @llvm.lifetime.end.p0(i64 4, ptr %3) #15
  br label %23

12:                                               ; preds = %6
  call void @llvm.lifetime.start.p0(i64 8, ptr %4) #15
  %13 = getelementptr inbounds nuw %"class.btInverseDynamicsBullet3::MultiBodyTree::MultiBodyImpl", ptr %5, i32 0, i32 3
  %14 = load i32, ptr %3, align 4, !tbaa !9
  %15 = call noundef nonnull align 8 dereferenceable(816) ptr @_ZN20b3AlignedObjectArrayIN24btInverseDynamicsBullet39RigidBodyEEixEi(ptr noundef nonnull align 8 dereferenceable(25) %13, i32 noundef %14)
  store ptr %15, ptr %4, align 8, !tbaa !53
  %16 = load ptr, ptr %4, align 8, !tbaa !53
  %17 = getelementptr inbounds nuw %"struct.btInverseDynamicsBullet3::RigidBody", ptr %16, i32 0, i32 7
  call void @_ZN24btInverseDynamicsBullet37setZeroERNS_4vec3E(ptr noundef nonnull align 4 dereferenceable(16) %17)
  %18 = load ptr, ptr %4, align 8, !tbaa !53
  %19 = getelementptr inbounds nuw %"struct.btInverseDynamicsBullet3::RigidBody", ptr %18, i32 0, i32 8
  call void @_ZN24btInverseDynamicsBullet37setZeroERNS_4vec3E(ptr noundef nonnull align 4 dereferenceable(16) %19)
  call void @llvm.lifetime.end.p0(i64 8, ptr %4) #15
  br label %20

20:                                               ; preds = %12
  %21 = load i32, ptr %3, align 4, !tbaa !9
  %22 = add nsw i32 %21, 1
  store i32 %22, ptr %3, align 4, !tbaa !9
  br label %6, !llvm.loop !144

23:                                               ; preds = %11
  ret void
}