; Function Attrs: mustprogress uwtable
define dso_local void @_ZN24btInverseDynamicsBullet313MultiBodyTree13MultiBodyImpl28clearAllUserForcesAndMomentsEv(ptr noundef nonnull readonly align 8 captures(none) dereferenceable(400) %0) local_unnamed_addr #0 align 2 {
  %2 = load i32, ptr %0, align 8, !tbaa !4
  %3 = icmp sgt i32 %2, 0
  br i1 %3, label %.lr.ph, label %._crit_edge

.lr.ph:                                           ; preds = %1
  %4 = getelementptr inbounds nuw i8, ptr %0, i64 40
  br label %5

._crit_edge:                                      ; preds = %5, %1
  ret void

5:                                                ; preds = %.lr.ph, %5
  %indvars.iv = phi i64 [ 0, %.lr.ph ], [ %indvars.iv.next, %5 ]
  %6 = load ptr, ptr %4, align 8, !tbaa !34
  %7 = getelementptr inbounds nuw %"struct.btInverseDynamicsBullet3::RigidBody", ptr %6, i64 %indvars.iv
  %8 = getelementptr inbounds nuw i8, ptr %7, i64 132
  tail call void @_ZN24btInverseDynamicsBullet37setZeroERNS_4vec3E(ptr noundef nonnull align 4 dereferenceable(16) %8)
  %9 = getelementptr inbounds nuw i8, ptr %7, i64 148
  tail call void @_ZN24btInverseDynamicsBullet37setZeroERNS_4vec3E(ptr noundef nonnull align 4 dereferenceable(16) %9)
  %indvars.iv.next = add nuw nsw i64 %indvars.iv, 1
  %10 = load i32, ptr %0, align 8, !tbaa !4
  %11 = sext i32 %10 to i64
  %12 = icmp slt i64 %indvars.iv.next, %11
  br i1 %12, label %5, label %._crit_edge, !llvm.loop !228
}